target datalayout = "e-m:e-p270:32:32-p271:32:32-p272:64:64-i64:64-i128:128-f80:128-n8:16:32:64-S128"
target triple = "x86_64-pc-linux-gnu"

%struct.ident_t = type { i32, i32, i32, i32, ptr }
%"class.open3d::core::Device" = type { i32, i32 }
%"class.std::__cxx11::basic_string" = type { %"struct.std::__cxx11::basic_string<char>::_Alloc_hider", i64, %union.anon }
%"struct.std::__cxx11::basic_string<char>::_Alloc_hider" = type { ptr }
%union.anon = type { i64, [8 x i8] }
%"class.open3d::t::geometry::kernel::TArrayIndexer" = type { ptr, i64, i64, [4 x i64] }
%class.anon.396 = type <{ i64, %"class.open3d::t::geometry::kernel::TArrayIndexer", i64, %"class.open3d::t::geometry::kernel::TArrayIndexer", float, [4 x i8] }>

@.str.12 = private unnamed_addr constant [121 x i8] c"generated/home/dtcxzyw/WorkSpace/Projects/compilers/llvm-opt-benchmark/bench/open3d/Open3D/cpp/open3d/core/ParallelFor.h\00", align 1
@.str.13 = private unnamed_addr constant [45 x i8] c"ParallelFor for CPU cannot run on device {}.\00", align 1
@2 = private unnamed_addr constant %struct.ident_t { i32 0, i32 2, i32 0, i32 22, ptr @0 }, align 8

; Function Attrs: mustprogress nounwind ssp uwtable
define linkonce_odr hidden void @_ZNSt15__new_allocatorIcE10deallocateEPcm(ptr noundef nonnull align 1 dereferenceable(1) %0, ptr noundef %1, i64 noundef %2) #5 comdat align 2 {
  %4 = alloca ptr, align 8
  %5 = alloca ptr, align 8
  %6 = alloca i64, align 8
  store ptr %0, ptr %4, align 8, !tbaa !281
  store ptr %1, ptr %5, align 8, !tbaa !23
  store i64 %2, ptr %6, align 8, !tbaa !49
  %7 = load ptr, ptr %5, align 8, !tbaa !23
  %8 = load i64, ptr %6, align 8, !tbaa !49
  %9 = mul i64 %8, 1
  call void @_ZdlPvm(ptr noundef %7, i64 noundef %9) #32
  ret void
}

; Function Attrs: mustprogress nounwind ssp uwtable
define linkonce_odr hidden noundef ptr @_ZNSt19__ptr_traits_ptr_toIPKcS0_Lb0EE10pointer_toERS0_(ptr noundef nonnull align 1 dereferenceable(1) %0) #5 comdat align 2 {
  %2 = alloca ptr, align 8
  store ptr %0, ptr %2, align 8, !tbaa !23
  %3 = load ptr, ptr %2, align 8, !tbaa !23
  ret ptr %3
}

; Function Attrs: alwaysinline mustprogress nounwind ssp uwtable
define linkonce_odr hidden void @_ZNSt16allocator_traitsISaIcEE10deallocateERS0_Pcm(ptr noundef nonnull align 1 dereferenceable(1) %0, ptr noundef %1, i64 noundef %2) #3 comdat align 2 {
  %4 = alloca ptr, align 8
  %5 = alloca ptr, align 8
  %6 = alloca i64, align 8
  store ptr %0, ptr %4, align 8, !tbaa !277
  store ptr %1, ptr %5, align 8, !tbaa !23
  store i64 %2, ptr %6, align 8, !tbaa !49
  %7 = load ptr, ptr %4, align 8, !tbaa !277
  %8 = load ptr, ptr %5, align 8, !tbaa !23
  %9 = load i64, ptr %6, align 8, !tbaa !49
  call void @_ZNSt15__new_allocatorIcE10deallocateEPcm(ptr noundef nonnull align 1 dereferenceable(1) %7, ptr noundef %8, i64 noundef %9)
  ret void
}

; Function Attrs: mustprogress nounwind ssp uwtable
define available_externally noundef nonnull align 1 dereferenceable(1) ptr @_ZNSt7__cxx1112basic_stringIcSt11char_traitsIcESaIcEE16_M_get_allocatorEv(ptr noundef nonnull align 8 dereferenceable(32) %0) #5 align 2 {
  %2 = alloca ptr, align 8
  store ptr %0, ptr %2, align 8, !tbaa !262
  %3 = load ptr, ptr %2, align 8
  %4 = getelementptr inbounds nuw %"class.std::__cxx11::basic_string", ptr %3, i32 0, i32 0
  ret ptr %4
}

; Function Attrs: mustprogress nounwind ssp uwtable
define available_externally noundef ptr @_ZNKSt7__cxx1112basic_stringIcSt11char_traitsIcESaIcEE13_M_local_dataEv(ptr noundef nonnull align 8 dereferenceable(32) %0) #5 align 2 {
  %2 = alloca ptr, align 8
  store ptr %0, ptr %2, align 8, !tbaa !262
  %3 = load ptr, ptr %2, align 8
  %4 = getelementptr inbounds nuw %"class.std::__cxx11::basic_string", ptr %3, i32 0, i32 2
  %5 = getelementptr inbounds [16 x i8], ptr %4, i64 0, i64 0
  %6 = call noundef ptr @_ZNSt19__ptr_traits_ptr_toIPKcS0_Lb0EE10pointer_toERS0_(ptr noundef nonnull align 1 dereferenceable(1) %5) #19
  ret ptr %6
}

; Function Attrs: mustprogress nounwind ssp uwtable
define available_externally noundef ptr @_ZNKSt7__cxx1112basic_stringIcSt11char_traitsIcESaIcEE7_M_dataEv(ptr noundef nonnull align 8 dereferenceable(32) %0) #5 align 2 {
  %2 = alloca ptr, align 8
  store ptr %0, ptr %2, align 8, !tbaa !262
  %3 = load ptr, ptr %2, align 8
  %4 = getelementptr inbounds nuw %"class.std::__cxx11::basic_string", ptr %3, i32 0, i32 0
  %5 = getelementptr inbounds nuw %"struct.std::__cxx11::basic_string<char>::_Alloc_hider", ptr %4, i32 0, i32 0
  %6 = load ptr, ptr %5, align 8, !tbaa !387
  ret ptr %6
}

; Function Attrs: mustprogress nounwind ssp uwtable
define linkonce_odr hidden void @_ZNSt15__new_allocatorIcED2Ev(ptr noundef nonnull align 1 dereferenceable(1) %0) unnamed_addr #5 comdat align 2 {
  %2 = alloca ptr, align 8
  store ptr %0, ptr %2, align 8, !tbaa !281
  ret void
}

; Function Attrs: mustprogress nounwind ssp uwtable
define available_externally void @_ZNSt7__cxx1112basic_stringIcSt11char_traitsIcESaIcEE10_M_destroyEm(ptr noundef nonnull align 8 dereferenceable(32) %0, i64 noundef %1) #5 align 2 personality ptr @__gxx_personality_v0 {
  %3 = alloca ptr, align 8
  %4 = alloca i64, align 8
  store ptr %0, ptr %3, align 8, !tbaa !262
  store i64 %1, ptr %4, align 8, !tbaa !49
  %5 = load ptr, ptr %3, align 8
  %6 = invoke noundef nonnull align 1 dereferenceable(1) ptr @_ZNSt7__cxx1112basic_stringIcSt11char_traitsIcESaIcEE16_M_get_allocatorEv(ptr noundef nonnull align 8 dereferenceable(32) %5)
          to label %7 unwind label %12

7:                                                ; preds = %2
  %8 = call noundef ptr @_ZNKSt7__cxx1112basic_stringIcSt11char_traitsIcESaIcEE7_M_dataEv(ptr noundef nonnull align 8 dereferenceable(32) %5)
  %9 = load i64, ptr %4, align 8, !tbaa !49
  %10 = add i64 %9, 1
  invoke void @_ZNSt16allocator_traitsISaIcEE10deallocateERS0_Pcm(ptr noundef nonnull align 1 dereferenceable(1) %6, ptr noundef %8, i64 noundef %10)
          to label %11 unwind label %12

11:                                               ; preds = %7
  ret void

12:                                               ; preds = %7, %2
  %13 = landingpad { ptr, i32 }
          catch ptr null
  %14 = extractvalue { ptr, i32 } %13, 0
  call void @__clang_call_terminate(ptr %14) #29
  unreachable
}

; Function Attrs: mustprogress ssp uwtable
define available_externally noundef zeroext i1 @_ZNKSt7__cxx1112basic_stringIcSt11char_traitsIcESaIcEE11_M_is_localEv(ptr noundef nonnull align 8 dereferenceable(32) %0) #0 align 2 {
  %2 = alloca i1, align 1
  %3 = alloca ptr, align 8
  store ptr %0, ptr %3, align 8, !tbaa !262
  %4 = load ptr, ptr %3, align 8
  %5 = call noundef ptr @_ZNKSt7__cxx1112basic_stringIcSt11char_traitsIcESaIcEE7_M_dataEv(ptr noundef nonnull align 8 dereferenceable(32) %4)
  %6 = call noundef ptr @_ZNKSt7__cxx1112basic_stringIcSt11char_traitsIcESaIcEE13_M_local_dataEv(ptr noundef nonnull align 8 dereferenceable(32) %4)
  %7 = icmp eq ptr %5, %6
  br i1 %7, label %8, label %14

8:                                                ; preds = %1
  %9 = getelementptr inbounds nuw %"class.std::__cxx11::basic_string", ptr %4, i32 0, i32 1
  %10 = load i64, ptr %9, align 8, !tbaa !385
  %11 = icmp ugt i64 %10, 15
  br i1 %11, label %12, label %13

12:                                               ; preds = %8
  unreachable

13:                                               ; preds = %8
  store i1 true, ptr %2, align 1
  br label %15

14:                                               ; preds = %1
  store i1 false, ptr %2, align 1
  br label %15

15:                                               ; preds = %14, %13
  %16 = load i1, ptr %2, align 1
  ret i1 %16
}

; Function Attrs: noinline noreturn nounwind ssp uwtable
define linkonce_odr hidden void @__clang_call_terminate(ptr noundef %0) #9 comdat {
  %2 = call ptr @__cxa_begin_catch(ptr %0) #19
  call void @_ZSt9terminatev() #29
  unreachable
}

; Function Attrs: inlinehint mustprogress nounwind ssp uwtable
define linkonce_odr hidden void @_ZNSt7__cxx1112basic_stringIcSt11char_traitsIcESaIcEE12_Alloc_hiderD2Ev(ptr noundef nonnull align 8 dereferenceable(8) %0) unnamed_addr #2 comdat align 2 {
  %2 = alloca ptr, align 8
  store ptr %0, ptr %2, align 8, !tbaa !381
  %3 = load ptr, ptr %2, align 8
  call void @_ZNSt15__new_allocatorIcED2Ev(ptr noundef nonnull align 1 dereferenceable(1) %3) #19
  ret void
}

; Function Attrs: mustprogress ssp uwtable
define available_externally void @_ZNSt7__cxx1112basic_stringIcSt11char_traitsIcESaIcEE10_M_disposeEv(ptr noundef nonnull align 8 dereferenceable(32) %0) #0 align 2 {
  %2 = alloca ptr, align 8
  store ptr %0, ptr %2, align 8, !tbaa !262
  %3 = load ptr, ptr %2, align 8
  %4 = call noundef zeroext i1 @_ZNKSt7__cxx1112basic_stringIcSt11char_traitsIcESaIcEE11_M_is_localEv(ptr noundef nonnull align 8 dereferenceable(32) %3)
  br i1 %4, label %8, label %5

5:                                                ; preds = %1
  %6 = getelementptr inbounds nuw %"class.std::__cxx11::basic_string", ptr %3, i32 0, i32 2
  %7 = load i64, ptr %6, align 8, !tbaa !50
  call void @_ZNSt7__cxx1112basic_stringIcSt11char_traitsIcESaIcEE10_M_destroyEm(ptr noundef nonnull align 8 dereferenceable(32) %3, i64 noundef %7) #19
  br label %8

8:                                                ; preds = %5, %1
  ret void
}

; Function Attrs: mustprogress nounwind ssp uwtable
define available_externally void @_ZNSt7__cxx1112basic_stringIcSt11char_traitsIcESaIcEED2Ev(ptr noundef nonnull align 8 dereferenceable(32) %0) unnamed_addr #5 align 2 personality ptr @__gxx_personality_v0 {
  %2 = alloca ptr, align 8
  store ptr %0, ptr %2, align 8, !tbaa !262
  %3 = load ptr, ptr %2, align 8
  invoke void @_ZNSt7__cxx1112basic_stringIcSt11char_traitsIcESaIcEE10_M_disposeEv(ptr noundef nonnull align 8 dereferenceable(32) %3)
          to label %4 unwind label %6

4:                                                ; preds = %1
  %5 = getelementptr inbounds nuw %"class.std::__cxx11::basic_string", ptr %3, i32 0, i32 0
  call void @_ZNSt7__cxx1112basic_stringIcSt11char_traitsIcESaIcEE12_Alloc_hiderD2Ev(ptr noundef nonnull align 8 dereferenceable(8) %5) #19
  ret void

6:                                                ; preds = %1
  %7 = landingpad { ptr, i32 }
          catch ptr null
  %8 = extractvalue { ptr, i32 } %7, 0
  call void @__clang_call_terminate(ptr %8) #29
  unreachable
}

; Function Attrs: inlinehint mustprogress nounwind ssp uwtable
define linkonce_odr hidden noundef zeroext i1 @_ZNK6open3d4core6Device5IsCPUEv(ptr noundef nonnull align 4 dereferenceable(8) %0) #2 comdat align 2 {
  %2 = alloca ptr, align 8
  store ptr %0, ptr %2, align 8, !tbaa !257
  %3 = load ptr, ptr %2, align 8
  %4 = getelementptr inbounds nuw %"class.open3d::core::Device", ptr %3, i32 0, i32 0
  %5 = load i32, ptr %4, align 4, !tbaa !259
  %6 = icmp eq i32 %5, 0
  ret i1 %6
}

; Function Attrs: mustprogress ssp uwtable
define internal void @"_ZN6open3d4core15ParallelForCPU_IZNS_1t8geometry6kernel5image18CreateNormalMapCPUERKNS0_6TensorERS6_fE3$_0EEvRKNS0_6DeviceElRKT_"(ptr noundef nonnull align 4 dereferenceable(8) %0, i64 noundef %1, ptr noundef nonnull align 8 dereferenceable(132) %2) #0 personality ptr @__gxx_personality_v0 {
  %4 = alloca ptr, align 8
  %5 = alloca i64, align 8
  %6 = alloca ptr, align 8
  %7 = alloca %"class.std::__cxx11::basic_string", align 8
  %8 = alloca ptr, align 8
  %9 = alloca i32, align 4
  %10 = call i32 @__kmpc_global_thread_num(ptr @2)
  store ptr %0, ptr %4, align 8, !tbaa !257
  store i64 %1, ptr %5, align 8, !tbaa !49
  store ptr %2, ptr %6, align 8, !tbaa !51
  %11 = load ptr, ptr %4, align 8, !tbaa !257
  %12 = call noundef zeroext i1 @_ZNK6open3d4core6Device5IsCPUEv(ptr noundef nonnull align 4 dereferenceable(8) %11)
  br i1 %12, label %20, label %13

13:                                               ; preds = %3
  call void @llvm.lifetime.start.p0(i64 32, ptr %7) #19
  %14 = load ptr, ptr %4, align 8, !tbaa !257
  call void @_ZNK6open3d4core6Device8ToStringB5cxx11Ev(ptr dead_on_unwind writable sret(%"class.std::__cxx11::basic_string") align 8 %7, ptr noundef nonnull align 4 dereferenceable(8) %14)
  invoke void @_ZN6open3d7utility6Logger9LogError_IJNSt7__cxx1112basic_stringIcSt11char_traitsIcESaIcEEEEEEvPKciSA_SA_DpOT_(ptr noundef @.str.12, i32 noundef 76, ptr noundef @"__PRETTY_FUNCTION__._ZN6open3d4core15ParallelForCPU_IZNS_1t8geometry6kernel5image18CreateNormalMapCPUERKNS0_6TensorERS6_fE3$_0EEvRKNS0_6DeviceElRKT_", ptr noundef @.str.13, ptr noundef nonnull align 8 dereferenceable(32) %7) #30
          to label %15 unwind label %16

15:                                               ; preds = %13
  unreachable

16:                                               ; preds = %13
  %17 = landingpad { ptr, i32 }
          cleanup
  %18 = extractvalue { ptr, i32 } %17, 0
  store ptr %18, ptr %8, align 8
  %19 = extractvalue { ptr, i32 } %17, 1
  store i32 %19, ptr %9, align 4
  call void @_ZNSt7__cxx1112basic_stringIcSt11char_traitsIcESaIcEED2Ev(ptr noundef nonnull align 8 dereferenceable(32) %7) #19
  call void @llvm.lifetime.end.p0(i64 32, ptr %7) #19
  br label %28

20:                                               ; preds = %3
  %21 = load i64, ptr %5, align 8, !tbaa !49
  %22 = icmp eq i64 %21, 0
  br i1 %22, label %23, label %24

23:                                               ; preds = %20
  br label %27

24:                                               ; preds = %20
  %25 = call noundef i32 @_ZN6open3d7utility18EstimateMaxThreadsEv()
  call void @__kmpc_push_num_threads(ptr @2, i32 %10, i32 %25)
  %26 = load ptr, ptr %6, align 8, !tbaa !51
  call void (ptr, i32, ptr, ...) @__kmpc_fork_call(ptr @2, i32 2, ptr @"_ZN6open3d4core15ParallelForCPU_IZNS_1t8geometry6kernel5image18CreateNormalMapCPUERKNS0_6TensorERS6_fE3$_0EEvRKNS0_6DeviceElRKT_.omp_outlined", ptr %5, ptr %26)
  br label %27

27:                                               ; preds = %24, %23
  ret void

28:                                               ; preds = %16
  %29 = load ptr, ptr %8, align 8
  %30 = load i32, ptr %9, align 4
  %31 = insertvalue { ptr, i32 } poison, ptr %29, 0
  %32 = insertvalue { ptr, i32 } %31, i32 %30, 1
  resume { ptr, i32 } %32
}

; Function Attrs: mustprogress ssp uwtable
define internal void @"_ZN6open3d4core11ParallelForIZNS_1t8geometry6kernel5image18CreateNormalMapCPUERKNS0_6TensorERS6_fE3$_0EEvRKNS0_6DeviceElRKT_"(ptr noundef nonnull align 4 dereferenceable(8) %0, i64 noundef %1, ptr noundef nonnull align 8 dereferenceable(132) %2) #0 {
  %4 = alloca ptr, align 8
  %5 = alloca i64, align 8
  %6 = alloca ptr, align 8
  store ptr %0, ptr %4, align 8, !tbaa !257
  store i64 %1, ptr %5, align 8, !tbaa !49
  store ptr %2, ptr %6, align 8, !tbaa !51
  %7 = load ptr, ptr %4, align 8, !tbaa !257
  %8 = load i64, ptr %5, align 8, !tbaa !49
  %9 = load ptr, ptr %6, align 8, !tbaa !51
  call void @"_ZN6open3d4core15ParallelForCPU_IZNS_1t8geometry6kernel5image18CreateNormalMapCPUERKNS0_6TensorERS6_fE3$_0EEvRKNS0_6DeviceElRKT_"(ptr noundef nonnull align 4 dereferenceable(8) %7, i64 noundef %8, ptr noundef nonnull align 8 dereferenceable(132) %9)
  ret void
}

; Function Attrs: inlinehint mustprogress nounwind ssp uwtable
define linkonce_odr hidden noundef i64 @_ZNK6open3d1t8geometry6kernel13TArrayIndexerIlE8GetShapeEi(ptr noundef nonnull align 8 dereferenceable(56) %0, i32 noundef %1) #2 comdat align 2 {
  %3 = alloca ptr, align 8
  %4 = alloca i32, align 4
  store ptr %0, ptr %3, align 8, !tbaa !1774
  store i32 %1, ptr %4, align 4, !tbaa !127
  %5 = load ptr, ptr %3, align 8
  %6 = getelementptr inbounds nuw %"class.open3d::t::geometry::kernel::TArrayIndexer", ptr %5, i32 0, i32 3
  %7 = load i32, ptr %4, align 4, !tbaa !127
  %8 = sext i32 %7 to i64
  %9 = getelementptr inbounds [4 x i64], ptr %6, i64 0, i64 %8
  %10 = load i64, ptr %9, align 8, !tbaa !49
  ret i64 %10
}

; Function Attrs: mustprogress ssp uwtable
define hidden void @_ZN6open3d1t8geometry6kernel5image18CreateNormalMapCPUERKNS_4core6TensorERS5_f(ptr noundef nonnull align 8 dereferenceable(160) %0, ptr noundef nonnull align 8 dereferenceable(160) %1, float noundef %2) #0 {
  %4 = alloca ptr, align 8
  %5 = alloca ptr, align 8
  %6 = alloca float, align 4
  %7 = alloca %"class.open3d::t::geometry::kernel::TArrayIndexer", align 8
  %8 = alloca %"class.open3d::t::geometry::kernel::TArrayIndexer", align 8
  %9 = alloca i64, align 8
  %10 = alloca i64, align 8
  %11 = alloca i64, align 8
  %12 = alloca %"class.open3d::core::Device", align 4
  %13 = alloca %class.anon.396, align 8
  store ptr %0, ptr %4, align 8, !tbaa !4
  store ptr %1, ptr %5, align 8, !tbaa !4
  store float %2, ptr %6, align 4, !tbaa !15
  call void @llvm.lifetime.start.p0(i64 56, ptr %7) #19
  %14 = load ptr, ptr %4, align 8, !tbaa !4
  call void @_ZN6open3d1t8geometry6kernel13TArrayIndexerIlEC2ERKNS_4core6TensorEl(ptr noundef nonnull align 8 dereferenceable(56) %7, ptr noundef nonnull align 8 dereferenceable(160) %14, i64 noundef 2)
  call void @llvm.lifetime.start.p0(i64 56, ptr %8) #19
  %15 = load ptr, ptr %5, align 8, !tbaa !4
  call void @_ZN6open3d1t8geometry6kernel13TArrayIndexerIlEC2ERKNS_4core6TensorEl(ptr noundef nonnull align 8 dereferenceable(56) %8, ptr noundef nonnull align 8 dereferenceable(160) %15, i64 noundef 2)
  call void @llvm.lifetime.start.p0(i64 8, ptr %9) #19
  %16 = call noundef i64 @_ZNK6open3d1t8geometry6kernel13TArrayIndexerIlE8GetShapeEi(ptr noundef nonnull align 8 dereferenceable(56) %7, i32 noundef 0)
  store i64 %16, ptr %9, align 8, !tbaa !49
  call void @llvm.lifetime.start.p0(i64 8, ptr %10) #19
  %17 = call noundef i64 @_ZNK6open3d1t8geometry6kernel13TArrayIndexerIlE8GetShapeEi(ptr noundef nonnull align 8 dereferenceable(56) %7, i32 noundef 1)
  store i64 %17, ptr %10, align 8, !tbaa !49
  call void @llvm.lifetime.start.p0(i64 8, ptr %11) #19
  %18 = load i64, ptr %9, align 8, !tbaa !49
  %19 = load i64, ptr %10, align 8, !tbaa !49
  %20 = mul nsw i64 %18, %19
  store i64 %20, ptr %11, align 8, !tbaa !49
  call void @llvm.lifetime.start.p0(i64 8, ptr %12) #19
  %21 = load ptr, ptr %4, align 8, !tbaa !4
  %22 = load ptr, ptr %21, align 8, !tbaa !31
  %23 = getelementptr inbounds ptr, ptr %22, i64 2
  %24 = load ptr, ptr %23, align 8
  %25 = call i64 %24(ptr noundef nonnull align 8 dereferenceable(160) %21)
  store i64 %25, ptr %12, align 4
  %26 = load i64, ptr %11, align 8, !tbaa !49
  call void @llvm.lifetime.start.p0(i64 136, ptr %13) #19
  %27 = getelementptr inbounds nuw %class.anon.396, ptr %13, i32 0, i32 0
  %28 = load i64, ptr %10, align 8, !tbaa !49
  store i64 %28, ptr %27, align 8, !tbaa !2019
  %29 = getelementptr inbounds nuw %class.anon.396, ptr %13, i32 0, i32 1
  call void @llvm.memcpy.p0.p0.i64(ptr align 8 %29, ptr align 8 %8, i64 56, i1 false), !tbaa.struct !1818
  %30 = getelementptr inbounds nuw %class.anon.396, ptr %13, i32 0, i32 2
  %31 = load i64, ptr %9, align 8, !tbaa !49
  store i64 %31, ptr %30, align 8, !tbaa !2021
  %32 = getelementptr inbounds nuw %class.anon.396, ptr %13, i32 0, i32 3
  call void @llvm.memcpy.p0.p0.i64(ptr align 8 %32, ptr align 8 %7, i64 56, i1 false), !tbaa.struct !1818
  %33 = getelementptr inbounds nuw %class.anon.396, ptr %13, i32 0, i32 4
  %34 = load float, ptr %6, align 4, !tbaa !15
  store float %34, ptr %33, align 8, !tbaa !2022
  call void @"_ZN6open3d4core11ParallelForIZNS_1t8geometry6kernel5image18CreateNormalMapCPUERKNS0_6TensorERS6_fE3$_0EEvRKNS0_6DeviceElRKT_"(ptr noundef nonnull align 4 dereferenceable(8) %12, i64 noundef %26, ptr noundef nonnull align 8 dereferenceable(132) %13)
  call void @llvm.lifetime.end.p0(i64 136, ptr %13) #19
  call void @llvm.lifetime.end.p0(i64 8, ptr %12) #19
  call void @llvm.lifetime.end.p0(i64 8, ptr %11) #19
  call void @llvm.lifetime.end.p0(i64 8, ptr %10) #19
  call void @llvm.lifetime.end.p0(i64 8, ptr %9) #19
  call void @llvm.lifetime.end.p0(i64 56, ptr %8) #19
  call void @llvm.lifetime.end.p0(i64 56, ptr %7) #19
  ret void
}