; Function Attrs: mustprogress ssp uwtable
define hidden void @_ZN6open3d1t8geometry6kernel5image18CreateNormalMapCPUERKNS_4core6TensorERS5_f(ptr noundef nonnull align 8 dereferenceable(160) %0, ptr noundef nonnull align 8 dereferenceable(160) %1, float noundef %2) local_unnamed_addr #0 personality ptr @__gxx_personality_v0 {
  %4 = alloca i64, align 8
  %5 = alloca %"class.std::__cxx11::basic_string", align 8
  %6 = alloca %"class.open3d::t::geometry::kernel::TArrayIndexer", align 8
  %7 = alloca %"class.open3d::t::geometry::kernel::TArrayIndexer", align 8
  %8 = alloca %"class.open3d::core::Device", align 8
  %9 = alloca %class.anon.396, align 8
  call void @llvm.lifetime.start.p0(i64 56, ptr nonnull %6) #16
  call void @_ZN6open3d1t8geometry6kernel13TArrayIndexerIlEC2ERKNS_4core6TensorEl(ptr noundef nonnull align 8 dereferenceable(56) %6, ptr noundef nonnull align 8 dereferenceable(160) %0, i64 noundef 2)
  call void @llvm.lifetime.start.p0(i64 56, ptr nonnull %7) #16
  call void @_ZN6open3d1t8geometry6kernel13TArrayIndexerIlEC2ERKNS_4core6TensorEl(ptr noundef nonnull align 8 dereferenceable(56) %7, ptr noundef nonnull align 8 dereferenceable(160) %1, i64 noundef 2)
  %10 = getelementptr inbounds nuw i8, ptr %6, i64 24
  %11 = load i64, ptr %10, align 8, !tbaa !36
  %12 = getelementptr inbounds nuw i8, ptr %6, i64 32
  %13 = load i64, ptr %12, align 8, !tbaa !36
  %14 = mul nsw i64 %13, %11
  call void @llvm.lifetime.start.p0(i64 8, ptr nonnull %8) #16
  %15 = load ptr, ptr %0, align 8, !tbaa !4
  %16 = getelementptr inbounds nuw i8, ptr %15, i64 16
  %17 = load ptr, ptr %16, align 8
  %18 = call i64 %17(ptr noundef nonnull align 8 dereferenceable(160) %0)
  store i64 %18, ptr %8, align 8
  call void @llvm.lifetime.start.p0(i64 136, ptr nonnull %9) #16
  store i64 %13, ptr %9, align 8, !tbaa !1454
  %19 = getelementptr inbounds nuw i8, ptr %9, i64 8
  call void @llvm.memcpy.p0.p0.i64(ptr noundef nonnull align 8 dereferenceable(56) %19, ptr noundef nonnull align 8 dereferenceable(56) %7, i64 56, i1 false), !tbaa.struct !1288
  %20 = getelementptr inbounds nuw i8, ptr %9, i64 64
  store i64 %11, ptr %20, align 8, !tbaa !1456
  %21 = getelementptr inbounds nuw i8, ptr %9, i64 72
  call void @llvm.memcpy.p0.p0.i64(ptr noundef nonnull align 8 dereferenceable(56) %21, ptr noundef nonnull align 8 dereferenceable(56) %6, i64 56, i1 false), !tbaa.struct !1288
  %22 = getelementptr inbounds nuw i8, ptr %9, i64 128
  store float %2, ptr %22, align 8, !tbaa !1457
  call void @llvm.lifetime.start.p0(i64 8, ptr nonnull %4)
  %23 = call i32 @__kmpc_global_thread_num(ptr nonnull @2)
  store i64 %14, ptr %4, align 8, !tbaa !36
  %24 = and i64 %18, 4294967295
  %25 = icmp eq i64 %24, 0
  br i1 %25, label %38, label %26

26:                                               ; preds = %3
  call void @llvm.lifetime.start.p0(i64 32, ptr nonnull %5) #16
  call void @_ZNK6open3d4core6Device8ToStringB5cxx11Ev(ptr dead_on_unwind nonnull writable sret(%"class.std::__cxx11::basic_string") align 8 %5, ptr noundef nonnull align 4 dereferenceable(8) %8)
  invoke void @_ZN6open3d7utility6Logger9LogError_IJNSt7__cxx1112basic_stringIcSt11char_traitsIcESaIcEEEEEEvPKciSA_SA_DpOT_(ptr noundef nonnull @.str.12, i32 noundef 76, ptr noundef nonnull @"__PRETTY_FUNCTION__._ZN6open3d4core15ParallelForCPU_IZNS_1t8geometry6kernel5image18CreateNormalMapCPUERKNS0_6TensorERS6_fE3$_0EEvRKNS0_6DeviceElRKT_", ptr noundef nonnull @.str.13, ptr noundef nonnull align 8 dereferenceable(32) %5) #33
          to label %27 unwind label %28

27:                                               ; preds = %26
  unreachable

28:                                               ; preds = %26
  %29 = landingpad { ptr, i32 }
          cleanup
  %30 = load ptr, ptr %5, align 8, !tbaa !47
  %31 = getelementptr inbounds nuw i8, ptr %5, i64 16
  %32 = icmp eq ptr %30, %31
  br i1 %32, label %_ZNKSt7__cxx1112basic_stringIcSt11char_traitsIcESaIcEE11_M_is_localEv.exit.thread.i.i.i.i, label %_ZNKSt7__cxx1112basic_stringIcSt11char_traitsIcESaIcEE11_M_is_localEv.exit.i.i.i.i

_ZNKSt7__cxx1112basic_stringIcSt11char_traitsIcESaIcEE11_M_is_localEv.exit.thread.i.i.i.i: ; preds = %28
  %33 = getelementptr inbounds nuw i8, ptr %5, i64 8
  %34 = load i64, ptr %33, align 8, !tbaa !51
  %35 = icmp ult i64 %34, 16
  call void @llvm.assume(i1 %35)
  br label %_ZNSt7__cxx1112basic_stringIcSt11char_traitsIcESaIcEED2Ev.exit.i.i

_ZNKSt7__cxx1112basic_stringIcSt11char_traitsIcESaIcEE11_M_is_localEv.exit.i.i.i.i: ; preds = %28
  %36 = load i64, ptr %31, align 8, !tbaa !15
  %37 = add i64 %36, 1
  call void @_ZdlPvm(ptr noundef %30, i64 noundef %37) #32
  br label %_ZNSt7__cxx1112basic_stringIcSt11char_traitsIcESaIcEED2Ev.exit.i.i

_ZNSt7__cxx1112basic_stringIcSt11char_traitsIcESaIcEED2Ev.exit.i.i: ; preds = %_ZNKSt7__cxx1112basic_stringIcSt11char_traitsIcESaIcEE11_M_is_localEv.exit.i.i.i.i, %_ZNKSt7__cxx1112basic_stringIcSt11char_traitsIcESaIcEE11_M_is_localEv.exit.thread.i.i.i.i
  call void @llvm.lifetime.end.p0(i64 32, ptr nonnull %5) #16
  resume { ptr, i32 } %29

38:                                               ; preds = %3
  %39 = icmp eq i64 %14, 0
  br i1 %39, label %"_ZN6open3d4core11ParallelForIZNS_1t8geometry6kernel5image18CreateNormalMapCPUERKNS0_6TensorERS6_fE3$_0EEvRKNS0_6DeviceElRKT_.exit", label %40

40:                                               ; preds = %38
  %41 = call noundef i32 @_ZN6open3d7utility18EstimateMaxThreadsEv()
  call void @__kmpc_push_num_threads(ptr nonnull @2, i32 %23, i32 %41)
  call void (ptr, i32, ptr, ...) @__kmpc_fork_call(ptr nonnull @2, i32 2, ptr nonnull @"_ZN6open3d4core15ParallelForCPU_IZNS_1t8geometry6kernel5image18CreateNormalMapCPUERKNS0_6TensorERS6_fE3$_0EEvRKNS0_6DeviceElRKT_.omp_outlined", ptr nonnull %4, ptr nonnull align 8 dereferenceable(132) %9)
  br label %"_ZN6open3d4core11ParallelForIZNS_1t8geometry6kernel5image18CreateNormalMapCPUERKNS0_6TensorERS6_fE3$_0EEvRKNS0_6DeviceElRKT_.exit"

"_ZN6open3d4core11ParallelForIZNS_1t8geometry6kernel5image18CreateNormalMapCPUERKNS0_6TensorERS6_fE3$_0EEvRKNS0_6DeviceElRKT_.exit": ; preds = %38, %40
  call void @llvm.lifetime.end.p0(i64 8, ptr nonnull %4)
  call void @llvm.lifetime.end.p0(i64 136, ptr nonnull %9) #16
  call void @llvm.lifetime.end.p0(i64 8, ptr nonnull %8) #16
  call void @llvm.lifetime.end.p0(i64 56, ptr nonnull %7) #16
  call void @llvm.lifetime.end.p0(i64 56, ptr nonnull %6) #16
  ret void
}